target datalayout = "e-m:e-p270:32:32-p271:32:32-p272:64:64-i64:64-i128:128-f80:128-n8:16:32:64-S128"
target triple = "x86_64-unknown-linux-gnu"

%struct.SiFivePwmState = type { %struct.SysBusDevice, %struct.MemoryRegion, [4 x %struct.QEMUTimer], i64, i64, i32, [4 x i32], [4 x ptr] }
%struct.SysBusDevice = type { %struct.DeviceState, i32, [32 x %struct.anon], i32, [32 x i32] }
%struct.DeviceState = type { %struct.Object, ptr, ptr, i8, i8, i64, ptr, i32, i8, ptr, %struct.NamedGPIOListHead, %struct.NamedClockListHead, %struct.BusStateHead, i32, i32, i32, %struct.ResettableState, ptr, %struct.MemReentrancyGuard }
%struct.Object = type { ptr, ptr, ptr, i32, ptr }
%struct.NamedGPIOListHead = type { ptr }
%struct.NamedClockListHead = type { ptr }
%struct.BusStateHead = type { ptr }
%struct.ResettableState = type { i32, i8, i8 }
%struct.MemReentrancyGuard = type { i8 }
%struct.anon = type { i64, ptr }
%struct.MemoryRegion = type { %struct.Object, i8, i8, i8, i8, i8, i8, i8, i8, i8, i8, ptr, ptr, ptr, ptr, ptr, ptr, i32, i128, i64, ptr, i64, i8, i8, i8, i8, i8, ptr, i64, i32, %union.anon, %union.anon.0, %union.anon.1, ptr, i32, ptr, ptr, i8 }
%union.anon = type { %struct.QTailQLink }
%struct.QTailQLink = type { ptr, ptr }
%union.anon.0 = type { %struct.QTailQLink }
%union.anon.1 = type { %struct.QTailQLink }
%struct.QEMUTimer = type { i64, ptr, ptr, ptr, ptr, i32, i32 }
%struct.timeval = type { i64, i64 }

@.str.4 = private unnamed_addr constant [22 x i8] c"%s: Bad offset 0x%lx\0A\00", align 1
@__func__.sifive_pwm_read = private unnamed_addr constant [16 x i8] c"sifive_pwm_read\00", align 1
@trace_events_enabled_count = external global i32, align 4
@_TRACE_SIFIVE_PWM_READ_DSTATE = external global i16, align 2
@message_with_timestamp = external global i8, align 1
@.str.5 = private unnamed_addr constant [53 x i8] c"%d@%zu.%06zu:sifive_pwm_read Read at address: 0x%lx\0A\00", align 1
@.str.6 = private unnamed_addr constant [40 x i8] c"sifive_pwm_read Read at address: 0x%lx\0A\00", align 1
@qemu_loglevel = external global i32, align 4

; Function Attrs: nounwind sspstrong uwtable
define internal void @_nocheck__trace_sifive_pwm_read(i64 noundef %offset) #0 {
entry:
  %offset.addr = alloca i64, align 8
  %_now = alloca %struct.timeval, align 8
  store i64 %offset, ptr %offset.addr, align 8
  %0 = load i32, ptr @trace_events_enabled_count, align 4
  %tobool = icmp ne i32 %0, 0
  %lnot = xor i1 %tobool, true
  %lnot1 = xor i1 %lnot, true
  %lnot.ext = zext i1 %lnot1 to i32
  %conv = sext i32 %lnot.ext to i64
  %tobool2 = icmp ne i64 %conv, 0
  br i1 %tobool2, label %land.lhs.true, label %if.end11

land.lhs.true:                                    ; preds = %entry
  %1 = load i16, ptr @_TRACE_SIFIVE_PWM_READ_DSTATE, align 2
  %conv3 = zext i16 %1 to i32
  %tobool4 = icmp ne i32 %conv3, 0
  br i1 %tobool4, label %land.lhs.true5, label %if.end11

land.lhs.true5:                                   ; preds = %land.lhs.true
  %call = call zeroext i1 @qemu_loglevel_mask(i32 noundef 32768)
  br i1 %call, label %if.then, label %if.end11

if.then:                                          ; preds = %land.lhs.true5
  %2 = load i8, ptr @message_with_timestamp, align 1
  %tobool7 = trunc i8 %2 to i1
  br i1 %tobool7, label %if.then8, label %if.else

if.then8:                                         ; preds = %if.then
  %call9 = call i32 @gettimeofday(ptr noundef %_now, ptr noundef null) #3
  %call10 = call i32 @qemu_get_thread_id()
  %tv_sec = getelementptr inbounds %struct.timeval, ptr %_now, i32 0, i32 0
  %3 = load i64, ptr %tv_sec, align 8
  %tv_usec = getelementptr inbounds %struct.timeval, ptr %_now, i32 0, i32 1
  %4 = load i64, ptr %tv_usec, align 8
  %5 = load i64, ptr %offset.addr, align 8
  call void (ptr, ...) @qemu_log(ptr noundef @.str.5, i32 noundef %call10, i64 noundef %3, i64 noundef %4, i64 noundef %5)
  br label %if.end

if.else:                                          ; preds = %if.then
  %6 = load i64, ptr %offset.addr, align 8
  call void (ptr, ...) @qemu_log(ptr noundef @.str.6, i64 noundef %6)
  br label %if.end

if.end:                                           ; preds = %if.else, %if.then8
  br label %if.end11

if.end11:                                         ; preds = %if.end, %land.lhs.true5, %land.lhs.true, %entry
  ret void
}

; Function Attrs: nounwind sspstrong uwtable
define internal i64 @muldiv64(i64 noundef %a, i32 noundef %b, i32 noundef %c) #0 {
entry:
  %a.addr = alloca i64, align 8
  %b.addr = alloca i32, align 4
  %c.addr = alloca i32, align 4
  store i64 %a, ptr %a.addr, align 8
  store i32 %b, ptr %b.addr, align 4
  store i32 %c, ptr %c.addr, align 4
  %0 = load i64, ptr %a.addr, align 8
  %conv = zext i64 %0 to i128
  %1 = load i32, ptr %b.addr, align 4
  %conv1 = zext i32 %1 to i128
  %mul = mul i128 %conv, %conv1
  %2 = load i32, ptr %c.addr, align 4
  %conv2 = zext i32 %2 to i128
  %div = sdiv i128 %mul, %conv2
  %conv3 = trunc i128 %div to i64
  ret i64 %conv3
}

; Function Attrs: nounwind sspstrong uwtable
define internal zeroext i1 @qemu_loglevel_mask(i32 noundef %mask) #0 {
entry:
  %mask.addr = alloca i32, align 4
  store i32 %mask, ptr %mask.addr, align 4
  %0 = load i32, ptr @qemu_loglevel, align 4
  %1 = load i32, ptr %mask.addr, align 4
  %and = and i32 %0, %1
  %cmp = icmp ne i32 %and, 0
  ret i1 %cmp
}

; Function Attrs: nounwind sspstrong uwtable
define internal i64 @sifive_pwm_compute_scale(ptr noundef %s) #0 {
entry:
  %s.addr = alloca ptr, align 8
  store ptr %s, ptr %s.addr, align 8
  %0 = load ptr, ptr %s.addr, align 8
  %pwmcfg = getelementptr inbounds %struct.SiFivePwmState, ptr %0, i32 0, i32 5
  %1 = load i32, ptr %pwmcfg, align 16
  %and = and i32 %1, 15
  %conv = zext i32 %and to i64
  ret i64 %conv
}

; Function Attrs: nounwind sspstrong uwtable
define internal void @trace_sifive_pwm_read(i64 noundef %offset) #0 {
entry:
  %offset.addr = alloca i64, align 8
  store i64 %offset, ptr %offset.addr, align 8
  %0 = load i64, ptr %offset.addr, align 8
  call void @_nocheck__trace_sifive_pwm_read(i64 noundef %0)
  ret void
}

; Function Attrs: nounwind sspstrong uwtable
define internal i64 @sifive_pwm_ns_to_ticks(ptr noundef %s, i64 noundef %time) #0 {
entry:
  %s.addr = alloca ptr, align 8
  %time.addr = alloca i64, align 8
  store ptr %s, ptr %s.addr, align 8
  store i64 %time, ptr %time.addr, align 8
  %0 = load i64, ptr %time.addr, align 8
  %1 = load ptr, ptr %s.addr, align 8
  %freq_hz = getelementptr inbounds %struct.SiFivePwmState, ptr %1, i32 0, i32 4
  %2 = load i64, ptr %freq_hz, align 8
  %conv = trunc i64 %2 to i32
  %call = call i64 @muldiv64(i64 noundef %0, i32 noundef %conv, i32 noundef 1000000000)
  ret i64 %call
}

; Function Attrs: nounwind sspstrong uwtable
define internal i64 @sifive_pwm_read(ptr noundef %opaque, i64 noundef %addr, i32 noundef %size) #0 {
entry:
  %retval = alloca i64, align 8
  %opaque.addr = alloca ptr, align 8
  %addr.addr = alloca i64, align 8
  %size.addr = alloca i32, align 4
  %s = alloca ptr, align 8
  %cur_time = alloca i64, align 8
  %scale = alloca i64, align 8
  %now = alloca i64, align 8
  store ptr %opaque, ptr %opaque.addr, align 8
  store i64 %addr, ptr %addr.addr, align 8
  store i32 %size, ptr %size.addr, align 4
  %0 = load ptr, ptr %opaque.addr, align 8
  store ptr %0, ptr %s, align 8
  %1 = load ptr, ptr %s, align 8
  %call = call i64 @qemu_clock_get_ns(i32 noundef 1)
  %call1 = call i64 @sifive_pwm_ns_to_ticks(ptr noundef %1, i64 noundef %call)
  store i64 %call1, ptr %now, align 8
  %2 = load i64, ptr %addr.addr, align 8
  call void @trace_sifive_pwm_read(i64 noundef %2)
  %3 = load i64, ptr %addr.addr, align 8
  switch i64 %3, label %sw.default [
    i64 0, label %sw.bb
    i64 8, label %sw.bb2
    i64 16, label %sw.bb8
    i64 32, label %sw.bb23
    i64 36, label %sw.bb26
    i64 40, label %sw.bb31
    i64 44, label %sw.bb36
  ]

sw.bb:                                            ; preds = %entry
  %4 = load ptr, ptr %s, align 8
  %pwmcfg = getelementptr inbounds %struct.SiFivePwmState, ptr %4, i32 0, i32 5
  %5 = load i32, ptr %pwmcfg, align 16
  %conv = zext i32 %5 to i64
  store i64 %conv, ptr %retval, align 8
  br label %return

sw.bb2:                                           ; preds = %entry
  %6 = load ptr, ptr %s, align 8
  %tick_offset = getelementptr inbounds %struct.SiFivePwmState, ptr %6, i32 0, i32 3
  %7 = load i64, ptr %tick_offset, align 16
  store i64 %7, ptr %cur_time, align 8
  %8 = load ptr, ptr %s, align 8
  %pwmcfg3 = getelementptr inbounds %struct.SiFivePwmState, ptr %8, i32 0, i32 5
  %9 = load i32, ptr %pwmcfg3, align 16
  %and = and i32 %9, 8192
  %tobool = icmp ne i32 %and, 0
  br i1 %tobool, label %if.then, label %lor.lhs.false

lor.lhs.false:                                    ; preds = %sw.bb2
  %10 = load ptr, ptr %s, align 8
  %pwmcfg4 = getelementptr inbounds %struct.SiFivePwmState, ptr %10, i32 0, i32 5
  %11 = load i32, ptr %pwmcfg4, align 16
  %and5 = and i32 %11, 4096
  %tobool6 = icmp ne i32 %and5, 0
  br i1 %tobool6, label %if.then, label %if.end

if.then:                                          ; preds = %lor.lhs.false, %sw.bb2
  %12 = load i64, ptr %now, align 8
  %13 = load i64, ptr %cur_time, align 8
  %sub = sub i64 %12, %13
  store i64 %sub, ptr %cur_time, align 8
  br label %if.end

if.end:                                           ; preds = %if.then, %lor.lhs.false
  %14 = load i64, ptr %cur_time, align 8
  %and7 = and i64 %14, 2147483647
  store i64 %and7, ptr %retval, align 8
  br label %return

sw.bb8:                                           ; preds = %entry
  %15 = load ptr, ptr %s, align 8
  %tick_offset9 = getelementptr inbounds %struct.SiFivePwmState, ptr %15, i32 0, i32 3
  %16 = load i64, ptr %tick_offset9, align 16
  store i64 %16, ptr %cur_time, align 8
  %17 = load ptr, ptr %s, align 8
  %call10 = call i64 @sifive_pwm_compute_scale(ptr noundef %17)
  store i64 %call10, ptr %scale, align 8
  %18 = load ptr, ptr %s, align 8
  %pwmcfg11 = getelementptr inbounds %struct.SiFivePwmState, ptr %18, i32 0, i32 5
  %19 = load i32, ptr %pwmcfg11, align 16
  %and12 = and i32 %19, 8192
  %tobool13 = icmp ne i32 %and12, 0
  br i1 %tobool13, label %if.then18, label %lor.lhs.false14

lor.lhs.false14:                                  ; preds = %sw.bb8
  %20 = load ptr, ptr %s, align 8
  %pwmcfg15 = getelementptr inbounds %struct.SiFivePwmState, ptr %20, i32 0, i32 5
  %21 = load i32, ptr %pwmcfg15, align 16
  %and16 = and i32 %21, 4096
  %tobool17 = icmp ne i32 %and16, 0
  br i1 %tobool17, label %if.then18, label %if.end20

if.then18:                                        ; preds = %lor.lhs.false14, %sw.bb8
  %22 = load i64, ptr %now, align 8
  %23 = load i64, ptr %cur_time, align 8
  %sub19 = sub i64 %22, %23
  store i64 %sub19, ptr %cur_time, align 8
  br label %if.end20

if.end20:                                         ; preds = %if.then18, %lor.lhs.false14
  %24 = load i64, ptr %cur_time, align 8
  %and21 = and i64 %24, 2147483647
  %25 = load i64, ptr %scale, align 8
  %shr = lshr i64 %and21, %25
  %and22 = and i64 %shr, 65535
  store i64 %and22, ptr %retval, align 8
  br label %return

sw.bb23:                                          ; preds = %entry
  %26 = load ptr, ptr %s, align 8
  %pwmcmp = getelementptr inbounds %struct.SiFivePwmState, ptr %26, i32 0, i32 6
  %arrayidx = getelementptr [4 x i32], ptr %pwmcmp, i64 0, i64 0
  %27 = load i32, ptr %arrayidx, align 4
  %and24 = and i32 %27, 65535
  %conv25 = zext i32 %and24 to i64
  store i64 %conv25, ptr %retval, align 8
  br label %return

sw.bb26:                                          ; preds = %entry
  %28 = load ptr, ptr %s, align 8
  %pwmcmp27 = getelementptr inbounds %struct.SiFivePwmState, ptr %28, i32 0, i32 6
  %arrayidx28 = getelementptr [4 x i32], ptr %pwmcmp27, i64 0, i64 1
  %29 = load i32, ptr %arrayidx28, align 4
  %and29 = and i32 %29, 65535
  %conv30 = zext i32 %and29 to i64
  store i64 %conv30, ptr %retval, align 8
  br label %return

sw.bb31:                                          ; preds = %entry
  %30 = load ptr, ptr %s, align 8
  %pwmcmp32 = getelementptr inbounds %struct.SiFivePwmState, ptr %30, i32 0, i32 6
  %arrayidx33 = getelementptr [4 x i32], ptr %pwmcmp32, i64 0, i64 2
  %31 = load i32, ptr %arrayidx33, align 4
  %and34 = and i32 %31, 65535
  %conv35 = zext i32 %and34 to i64
  store i64 %conv35, ptr %retval, align 8
  br label %return

sw.bb36:                                          ; preds = %entry
  %32 = load ptr, ptr %s, align 8
  %pwmcmp37 = getelementptr inbounds %struct.SiFivePwmState, ptr %32, i32 0, i32 6
  %arrayidx38 = getelementptr [4 x i32], ptr %pwmcmp37, i64 0, i64 3
  %33 = load i32, ptr %arrayidx38, align 4
  %and39 = and i32 %33, 65535
  %conv40 = zext i32 %and39 to i64
  store i64 %conv40, ptr %retval, align 8
  br label %return

sw.default:                                       ; preds = %entry
  br label %do.body

do.body:                                          ; preds = %sw.default
  %call41 = call zeroext i1 @qemu_loglevel_mask(i32 noundef 2048)
  %lnot = xor i1 %call41, true
  %lnot42 = xor i1 %lnot, true
  %lnot.ext = zext i1 %lnot42 to i32
  %conv43 = sext i32 %lnot.ext to i64
  %tobool44 = icmp ne i64 %conv43, 0
  br i1 %tobool44, label %if.then45, label %if.end46

if.then45:                                        ; preds = %do.body
  %34 = load i64, ptr %addr.addr, align 8
  call void (ptr, ...) @qemu_log(ptr noundef @.str.4, ptr noundef @__func__.sifive_pwm_read, i64 noundef %34)
  br label %if.end46

if.end46:                                         ; preds = %if.then45, %do.body
  br label %do.end

do.end:                                           ; preds = %if.end46
  store i64 0, ptr %retval, align 8
  br label %return

return:                                           ; preds = %do.end, %sw.bb36, %sw.bb31, %sw.bb26, %sw.bb23, %if.end20, %if.end, %sw.bb
  %35 = load i64, ptr %retval, align 8
  ret i64 %35
}