; Function Attrs: nounwind sspstrong uwtable
define internal range(i64 0, 4294967296) i64 @sifive_pwm_read(ptr noundef readonly captures(none) %opaque, i64 noundef %addr, i32 %size) #0 {
entry:
  %_now.i.i = alloca %struct.timeval, align 8
  %call = tail call i64 @qemu_clock_get_ns(i32 noundef 1) #6
  %0 = getelementptr i8, ptr %opaque, i64 1288
  %opaque.val = load i64, ptr %0, align 8
  %conv.i.i = zext i64 %call to i128
  %conv.mask.i = and i64 %opaque.val, 4294967295
  %conv1.i.i = zext nneg i64 %conv.mask.i to i128
  %mul.i.i = mul nuw nsw i128 %conv1.i.i, %conv.i.i
  %div.i.i = udiv i128 %mul.i.i, 1000000000
  %conv3.i.i = trunc i128 %div.i.i to i64
  call void @llvm.lifetime.start.p0(i64 16, ptr nonnull %_now.i.i)
  %1 = load i32, ptr @trace_events_enabled_count, align 4
  %tobool.i.i = icmp ne i32 %1, 0
  %2 = load i16, ptr @_TRACE_SIFIVE_PWM_READ_DSTATE, align 2
  %tobool4.i.i = icmp ne i16 %2, 0
  %or.cond.i.i = select i1 %tobool.i.i, i1 %tobool4.i.i, i1 false
  br i1 %or.cond.i.i, label %land.lhs.true5.i.i, label %trace_sifive_pwm_read.exit

land.lhs.true5.i.i:                               ; preds = %entry
  %3 = load i32, ptr @qemu_loglevel, align 4
  %and.i.i.i = and i32 %3, 32768
  %cmp.i.not.i.i = icmp eq i32 %and.i.i.i, 0
  br i1 %cmp.i.not.i.i, label %trace_sifive_pwm_read.exit, label %if.then.i.i

if.then.i.i:                                      ; preds = %land.lhs.true5.i.i
  %4 = load i8, ptr @message_with_timestamp, align 1
  %tobool7.i.i = trunc i8 %4 to i1
  br i1 %tobool7.i.i, label %if.then8.i.i, label %if.else.i.i

if.then8.i.i:                                     ; preds = %if.then.i.i
  %call9.i.i = call i32 @gettimeofday(ptr noundef nonnull %_now.i.i, ptr noundef null) #6
  %call10.i.i = tail call i32 @qemu_get_thread_id() #6
  %5 = load i64, ptr %_now.i.i, align 8
  %tv_usec.i.i = getelementptr inbounds nuw i8, ptr %_now.i.i, i64 8
  %6 = load i64, ptr %tv_usec.i.i, align 8
  tail call void (ptr, ...) @qemu_log(ptr noundef nonnull @.str.5, i32 noundef %call10.i.i, i64 noundef %5, i64 noundef %6, i64 noundef %addr) #6
  br label %trace_sifive_pwm_read.exit

if.else.i.i:                                      ; preds = %if.then.i.i
  tail call void (ptr, ...) @qemu_log(ptr noundef nonnull @.str.6, i64 noundef %addr) #6
  br label %trace_sifive_pwm_read.exit

trace_sifive_pwm_read.exit:                       ; preds = %entry, %land.lhs.true5.i.i, %if.then8.i.i, %if.else.i.i
  call void @llvm.lifetime.end.p0(i64 16, ptr nonnull %_now.i.i)
  %7 = tail call i64 @llvm.fshl.i64(i64 %addr, i64 %addr, i64 62)
  switch i64 %7, label %do.body [
    i64 0, label %sw.bb
    i64 2, label %sw.bb2
    i64 4, label %sw.bb8
    i64 8, label %sw.bb23
    i64 9, label %sw.bb26
    i64 10, label %sw.bb31
    i64 11, label %sw.bb36
  ]

sw.bb:                                            ; preds = %trace_sifive_pwm_read.exit
  %pwmcfg = getelementptr inbounds nuw i8, ptr %opaque, i64 1296
  %8 = load i32, ptr %pwmcfg, align 16
  %conv = zext i32 %8 to i64
  br label %return

sw.bb2:                                           ; preds = %trace_sifive_pwm_read.exit
  %tick_offset = getelementptr inbounds nuw i8, ptr %opaque, i64 1280
  %9 = load i64, ptr %tick_offset, align 16
  %pwmcfg3 = getelementptr inbounds nuw i8, ptr %opaque, i64 1296
  %10 = load i32, ptr %pwmcfg3, align 16
  %11 = and i32 %10, 12288
  %or.cond = icmp eq i32 %11, 0
  %sub = sub i64 %conv3.i.i, %9
  %cur_time.0 = select i1 %or.cond, i64 %9, i64 %sub
  %and7 = and i64 %cur_time.0, 2147483647
  br label %return

sw.bb8:                                           ; preds = %trace_sifive_pwm_read.exit
  %tick_offset9 = getelementptr inbounds nuw i8, ptr %opaque, i64 1280
  %12 = load i64, ptr %tick_offset9, align 16
  %13 = getelementptr i8, ptr %opaque, i64 1296
  %opaque.val20 = load i32, ptr %13, align 16
  %and.i = and i32 %opaque.val20, 15
  %conv.i = zext nneg i32 %and.i to i64
  %14 = and i32 %opaque.val20, 12288
  %or.cond19 = icmp eq i32 %14, 0
  %sub19 = sub i64 %conv3.i.i, %12
  %cur_time.1 = select i1 %or.cond19, i64 %12, i64 %sub19
  %and21 = and i64 %cur_time.1, 2147483647
  %shr = lshr i64 %and21, %conv.i
  %and22 = and i64 %shr, 65535
  br label %return

sw.bb23:                                          ; preds = %trace_sifive_pwm_read.exit
  %pwmcmp = getelementptr inbounds nuw i8, ptr %opaque, i64 1300
  %15 = load i32, ptr %pwmcmp, align 4
  %and24 = and i32 %15, 65535
  %conv25 = zext nneg i32 %and24 to i64
  br label %return

sw.bb26:                                          ; preds = %trace_sifive_pwm_read.exit
  %arrayidx28 = getelementptr i8, ptr %opaque, i64 1304
  %16 = load i32, ptr %arrayidx28, align 4
  %and29 = and i32 %16, 65535
  %conv30 = zext nneg i32 %and29 to i64
  br label %return

sw.bb31:                                          ; preds = %trace_sifive_pwm_read.exit
  %arrayidx33 = getelementptr i8, ptr %opaque, i64 1308
  %17 = load i32, ptr %arrayidx33, align 4
  %and34 = and i32 %17, 65535
  %conv35 = zext nneg i32 %and34 to i64
  br label %return

sw.bb36:                                          ; preds = %trace_sifive_pwm_read.exit
  %arrayidx38 = getelementptr i8, ptr %opaque, i64 1312
  %18 = load i32, ptr %arrayidx38, align 4
  %and39 = and i32 %18, 65535
  %conv40 = zext nneg i32 %and39 to i64
  br label %return

do.body:                                          ; preds = %trace_sifive_pwm_read.exit
  %19 = load i32, ptr @qemu_loglevel, align 4
  %and.i21 = and i32 %19, 2048
  %cmp.i.not = icmp eq i32 %and.i21, 0
  br i1 %cmp.i.not, label %return, label %if.then45

if.then45:                                        ; preds = %do.body
  tail call void (ptr, ...) @qemu_log(ptr noundef nonnull @.str.4, ptr noundef nonnull @__func__.sifive_pwm_read, i64 noundef %addr) #6
  br label %return

return:                                           ; preds = %if.then45, %do.body, %sw.bb36, %sw.bb31, %sw.bb26, %sw.bb23, %sw.bb8, %sw.bb2, %sw.bb
  %retval.0 = phi i64 [ %conv40, %sw.bb36 ], [ %conv35, %sw.bb31 ], [ %conv30, %sw.bb26 ], [ %conv25, %sw.bb23 ], [ %and22, %sw.bb8 ], [ %and7, %sw.bb2 ], [ %conv, %sw.bb ], [ 0, %do.body ], [ 0, %if.then45 ]
  ret i64 %retval.0
}